target datalayout = "e-m:e-p270:32:32-p271:32:32-p272:64:64-i64:64-i128:128-f80:128-n8:16:32:64-S128"
target triple = "x86_64-unknown-linux-gnu"

%"class.icu_75::ConfusabledataBuilder" = type <{ ptr, ptr, ptr, ptr, ptr, ptr, ptr, ptr, ptr, ptr, i32, [4 x i8] }>

@_ZN6icu_7513SPUStringPoolD1Ev = unnamed_addr alias void (ptr), ptr @_ZN6icu_7513SPUStringPoolD2Ev

; Function Attrs: mustprogress nounwind uwtable
define void @_ZN6icu_7521ConfusabledataBuilderD2Ev(ptr noundef nonnull align 8 dereferenceable(84) %this) unnamed_addr #1 align 2 personality ptr @__gxx_personality_v0 {
entry:
  %this.addr = alloca ptr, align 8
  store ptr %this, ptr %this.addr, align 8
  %this1 = load ptr, ptr %this.addr, align 8
  %fInput = getelementptr inbounds %"class.icu_75::ConfusabledataBuilder", ptr %this1, i32 0, i32 1
  %0 = load ptr, ptr %fInput, align 8
  invoke void @uprv_free_75(ptr noundef %0)
          to label %invoke.cont unwind label %terminate.lpad

invoke.cont:                                      ; preds = %entry
  %fParseLine = getelementptr inbounds %"class.icu_75::ConfusabledataBuilder", ptr %this1, i32 0, i32 8
  %1 = load ptr, ptr %fParseLine, align 8
  invoke void @uregex_close_75(ptr noundef %1)
          to label %invoke.cont2 unwind label %terminate.lpad

invoke.cont2:                                     ; preds = %invoke.cont
  %fParseHexNum = getelementptr inbounds %"class.icu_75::ConfusabledataBuilder", ptr %this1, i32 0, i32 9
  %2 = load ptr, ptr %fParseHexNum, align 8
  invoke void @uregex_close_75(ptr noundef %2)
          to label %invoke.cont3 unwind label %terminate.lpad

invoke.cont3:                                     ; preds = %invoke.cont2
  %fTable = getelementptr inbounds %"class.icu_75::ConfusabledataBuilder", ptr %this1, i32 0, i32 2
  %3 = load ptr, ptr %fTable, align 8
  invoke void @uhash_close_75(ptr noundef %3)
          to label %invoke.cont4 unwind label %terminate.lpad

invoke.cont4:                                     ; preds = %invoke.cont3
  %fKeySet = getelementptr inbounds %"class.icu_75::ConfusabledataBuilder", ptr %this1, i32 0, i32 3
  %4 = load ptr, ptr %fKeySet, align 8
  %isnull = icmp eq ptr %4, null
  br i1 %isnull, label %delete.end, label %delete.notnull

delete.notnull:                                   ; preds = %invoke.cont4
  call void @_ZN6icu_7510UnicodeSetD1Ev(ptr noundef nonnull align 8 dereferenceable(200) %4) #6
  call void @_ZN6icu_757UMemorydlEPv(ptr noundef %4) #6
  br label %delete.end

delete.end:                                       ; preds = %delete.notnull, %invoke.cont4
  %fKeyVec = getelementptr inbounds %"class.icu_75::ConfusabledataBuilder", ptr %this1, i32 0, i32 4
  %5 = load ptr, ptr %fKeyVec, align 8
  %isnull5 = icmp eq ptr %5, null
  br i1 %isnull5, label %delete.end7, label %delete.notnull6

delete.notnull6:                                  ; preds = %delete.end
  %vtable = load ptr, ptr %5, align 8
  %vfn = getelementptr inbounds ptr, ptr %vtable, i64 1
  %6 = load ptr, ptr %vfn, align 8
  call void %6(ptr noundef nonnull align 8 dereferenceable(40) %5) #6
  br label %delete.end7

delete.end7:                                      ; preds = %delete.notnull6, %delete.end
  %fStringTable = getelementptr inbounds %"class.icu_75::ConfusabledataBuilder", ptr %this1, i32 0, i32 6
  %7 = load ptr, ptr %fStringTable, align 8
  %isnull8 = icmp eq ptr %7, null
  br i1 %isnull8, label %delete.end12, label %delete.notnull9

delete.notnull9:                                  ; preds = %delete.end7
  %vtable10 = load ptr, ptr %7, align 8
  %vfn11 = getelementptr inbounds ptr, ptr %vtable10, i64 1
  %8 = load ptr, ptr %vfn11, align 8
  call void %8(ptr noundef nonnull align 8 dereferenceable(64) %7) #6
  br label %delete.end12

delete.end12:                                     ; preds = %delete.notnull9, %delete.end7
  %fValueVec = getelementptr inbounds %"class.icu_75::ConfusabledataBuilder", ptr %this1, i32 0, i32 5
  %9 = load ptr, ptr %fValueVec, align 8
  %isnull13 = icmp eq ptr %9, null
  br i1 %isnull13, label %delete.end17, label %delete.notnull14

delete.notnull14:                                 ; preds = %delete.end12
  %vtable15 = load ptr, ptr %9, align 8
  %vfn16 = getelementptr inbounds ptr, ptr %vtable15, i64 1
  %10 = load ptr, ptr %vfn16, align 8
  call void %10(ptr noundef nonnull align 8 dereferenceable(40) %9) #6
  br label %delete.end17

delete.end17:                                     ; preds = %delete.notnull14, %delete.end12
  %stringPool = getelementptr inbounds %"class.icu_75::ConfusabledataBuilder", ptr %this1, i32 0, i32 7
  %11 = load ptr, ptr %stringPool, align 8
  %isnull18 = icmp eq ptr %11, null
  br i1 %isnull18, label %delete.end20, label %delete.notnull19

delete.notnull19:                                 ; preds = %delete.end17
  call void @_ZN6icu_7513SPUStringPoolD1Ev(ptr noundef nonnull align 8 dereferenceable(16) %11) #6
  call void @_ZN6icu_757UMemorydlEPv(ptr noundef %11) #6
  br label %delete.end20

delete.end20:                                     ; preds = %delete.notnull19, %delete.end17
  ret void

terminate.lpad:                                   ; preds = %invoke.cont3, %invoke.cont2, %invoke.cont, %entry
  %12 = landingpad { ptr, i32 }
          catch ptr null
  %13 = extractvalue { ptr, i32 } %12, 0
  call void @__clang_call_terminate(ptr %13) #7
  unreachable
}