; Function Attrs: mustprogress nounwind uwtable
define void @_ZN6icu_7521ConfusabledataBuilderD2Ev(ptr nocapture noundef nonnull readonly align 8 dereferenceable(84) %this) unnamed_addr #1 align 2 personality ptr @__gxx_personality_v0 {
entry:
  %fInput = getelementptr inbounds i8, ptr %this, i64 8
  %0 = load ptr, ptr %fInput, align 8
  invoke void @uprv_free_75(ptr noundef %0)
          to label %invoke.cont unwind label %terminate.lpad

invoke.cont:                                      ; preds = %entry
  %fParseLine = getelementptr inbounds i8, ptr %this, i64 64
  %1 = load ptr, ptr %fParseLine, align 8
  invoke void @uregex_close_75(ptr noundef %1)
          to label %invoke.cont2 unwind label %terminate.lpad

invoke.cont2:                                     ; preds = %invoke.cont
  %fParseHexNum = getelementptr inbounds i8, ptr %this, i64 72
  %2 = load ptr, ptr %fParseHexNum, align 8
  invoke void @uregex_close_75(ptr noundef %2)
          to label %invoke.cont3 unwind label %terminate.lpad

invoke.cont3:                                     ; preds = %invoke.cont2
  %fTable = getelementptr inbounds i8, ptr %this, i64 16
  %3 = load ptr, ptr %fTable, align 8
  invoke void @uhash_close_75(ptr noundef %3)
          to label %invoke.cont4 unwind label %terminate.lpad

invoke.cont4:                                     ; preds = %invoke.cont3
  %fKeySet = getelementptr inbounds i8, ptr %this, i64 24
  %4 = load ptr, ptr %fKeySet, align 8
  %isnull = icmp eq ptr %4, null
  br i1 %isnull, label %delete.end, label %delete.notnull

delete.notnull:                                   ; preds = %invoke.cont4
  tail call void @_ZN6icu_7510UnicodeSetD1Ev(ptr noundef nonnull align 8 dereferenceable(200) %4) #10
  tail call void @_ZN6icu_757UMemorydlEPv(ptr noundef nonnull %4) #10
  br label %delete.end

delete.end:                                       ; preds = %delete.notnull, %invoke.cont4
  %fKeyVec = getelementptr inbounds i8, ptr %this, i64 32
  %5 = load ptr, ptr %fKeyVec, align 8
  %isnull5 = icmp eq ptr %5, null
  br i1 %isnull5, label %delete.end7, label %delete.notnull6

delete.notnull6:                                  ; preds = %delete.end
  %vtable = load ptr, ptr %5, align 8
  %vfn = getelementptr inbounds i8, ptr %vtable, i64 8
  %6 = load ptr, ptr %vfn, align 8
  tail call void %6(ptr noundef nonnull align 8 dereferenceable(40) %5) #10
  br label %delete.end7

delete.end7:                                      ; preds = %delete.notnull6, %delete.end
  %fStringTable = getelementptr inbounds i8, ptr %this, i64 48
  %7 = load ptr, ptr %fStringTable, align 8
  %isnull8 = icmp eq ptr %7, null
  br i1 %isnull8, label %delete.end12, label %delete.notnull9

delete.notnull9:                                  ; preds = %delete.end7
  %vtable10 = load ptr, ptr %7, align 8
  %vfn11 = getelementptr inbounds i8, ptr %vtable10, i64 8
  %8 = load ptr, ptr %vfn11, align 8
  tail call void %8(ptr noundef nonnull align 8 dereferenceable(64) %7) #10
  br label %delete.end12

delete.end12:                                     ; preds = %delete.notnull9, %delete.end7
  %fValueVec = getelementptr inbounds i8, ptr %this, i64 40
  %9 = load ptr, ptr %fValueVec, align 8
  %isnull13 = icmp eq ptr %9, null
  br i1 %isnull13, label %delete.end17, label %delete.notnull14

delete.notnull14:                                 ; preds = %delete.end12
  %vtable15 = load ptr, ptr %9, align 8
  %vfn16 = getelementptr inbounds i8, ptr %vtable15, i64 8
  %10 = load ptr, ptr %vfn16, align 8
  tail call void %10(ptr noundef nonnull align 8 dereferenceable(40) %9) #10
  br label %delete.end17

delete.end17:                                     ; preds = %delete.notnull14, %delete.end12
  %stringPool = getelementptr inbounds i8, ptr %this, i64 56
  %11 = load ptr, ptr %stringPool, align 8
  %isnull18 = icmp eq ptr %11, null
  br i1 %isnull18, label %delete.end20, label %delete.notnull19

delete.notnull19:                                 ; preds = %delete.end17
  tail call void @_ZN6icu_7513SPUStringPoolD1Ev(ptr noundef nonnull align 8 dereferenceable(16) %11) #10
  tail call void @_ZN6icu_757UMemorydlEPv(ptr noundef nonnull %11) #10
  br label %delete.end20

delete.end20:                                     ; preds = %delete.notnull19, %delete.end17
  ret void

terminate.lpad:                                   ; preds = %invoke.cont3, %invoke.cont2, %invoke.cont, %entry
  %12 = landingpad { ptr, i32 }
          catch ptr null
  %13 = extractvalue { ptr, i32 } %12, 0
  tail call void @__clang_call_terminate(ptr %13) #11
  unreachable
}